; Function Attrs: mustprogress uwtable
define hidden void @_ZN4nori8tokenizeERKNSt7__cxx1112basic_stringIcSt11char_traitsIcESaIcEEES7_b(ptr dead_on_unwind noalias writable sret(%"class.std::vector") align 8 %0, ptr noundef nonnull align 8 dereferenceable(32) %1, ptr noundef nonnull align 8 dereferenceable(32) %2, i1 noundef zeroext %3) local_unnamed_addr #3 personality ptr @__gxx_personality_v0 {
  %5 = alloca %"class.std::__cxx11::basic_string", align 8
  %6 = tail call noundef i64 @_ZNKSt7__cxx1112basic_stringIcSt11char_traitsIcESaIcEE13find_first_ofERKS4_m(ptr noundef nonnull align 8 dereferenceable(32) %1, ptr noundef nonnull align 8 dereferenceable(32) %2, i64 noundef 0) #26
  tail call void @llvm.memset.p0.i64(ptr noundef nonnull align 8 dereferenceable(24) %0, i8 0, i64 24, i1 false)
  %7 = getelementptr inbounds i8, ptr %0, i64 8
  %8 = getelementptr inbounds i8, ptr %0, i64 16
  br i1 %3, label %.split.us, label %.split

.split.us:                                        ; preds = %4, %18
  %.02028.us = phi i64 [ %20, %18 ], [ %6, %4 ]
  %.02127.us = phi i64 [ %19, %18 ], [ 0, %4 ]
  %9 = sub i64 %.02028.us, %.02127.us
  invoke void @_ZNKSt7__cxx1112basic_stringIcSt11char_traitsIcESaIcEE6substrEmm(ptr dead_on_unwind nonnull writable sret(%"class.std::__cxx11::basic_string") align 8 %5, ptr noundef nonnull align 8 dereferenceable(32) %1, i64 noundef %.02127.us, i64 noundef %9)
          to label %10 unwind label %.split30.us

10:                                               ; preds = %.split.us
  %11 = load ptr, ptr %7, align 8
  %12 = load ptr, ptr %8, align 8
  %.not.i.i.us = icmp eq ptr %11, %12
  br i1 %.not.i.i.us, label %16, label %13

13:                                               ; preds = %10
  call void @_ZNSt7__cxx1112basic_stringIcSt11char_traitsIcESaIcEEC1EOS4_(ptr noundef nonnull align 8 dereferenceable(32) %11, ptr noundef nonnull align 8 dereferenceable(32) %5) #26
  %14 = load ptr, ptr %7, align 8
  %15 = getelementptr inbounds i8, ptr %14, i64 32
  store ptr %15, ptr %7, align 8
  br label %17

16:                                               ; preds = %10
  invoke void @_ZNSt6vectorINSt7__cxx1112basic_stringIcSt11char_traitsIcESaIcEEESaIS5_EE17_M_realloc_insertIJS5_EEEvN9__gnu_cxx17__normal_iteratorIPS5_S7_EEDpOT_(ptr noundef nonnull align 8 dereferenceable(24) %0, ptr %11, ptr noundef nonnull align 8 dereferenceable(32) %5)
          to label %17 unwind label %.split32.us

17:                                               ; preds = %16, %13
  call void @_ZNSt7__cxx1112basic_stringIcSt11char_traitsIcESaIcEED1Ev(ptr noundef nonnull align 8 dereferenceable(32) %5) #26
  %.not25.us = icmp eq i64 %.02028.us, -1
  br i1 %.not25.us, label %.split35.us, label %18

18:                                               ; preds = %17
  %19 = add nuw i64 %.02028.us, 1
  %20 = call noundef i64 @_ZNKSt7__cxx1112basic_stringIcSt11char_traitsIcESaIcEE13find_first_ofERKS4_m(ptr noundef nonnull align 8 dereferenceable(32) %1, ptr noundef nonnull align 8 dereferenceable(32) %2, i64 noundef %19) #26
  %.not.us = icmp eq i64 %19, -1
  br i1 %.not.us, label %.split35.us, label %.split.us, !llvm.loop !17

.split30.us:                                      ; preds = %.split.us
  %21 = landingpad { ptr, i32 }
          cleanup
  br label %39

.split32.us:                                      ; preds = %16
  %22 = landingpad { ptr, i32 }
          cleanup
  br label %34

.split:                                           ; preds = %4, %36
  %.02028 = phi i64 [ %38, %36 ], [ %6, %4 ]
  %.02127 = phi i64 [ %37, %36 ], [ 0, %4 ]
  %.not23.not = icmp eq i64 %.02028, %.02127
  br i1 %.not23.not, label %36, label %23

23:                                               ; preds = %.split
  %24 = sub i64 %.02028, %.02127
  invoke void @_ZNKSt7__cxx1112basic_stringIcSt11char_traitsIcESaIcEE6substrEmm(ptr dead_on_unwind nonnull writable sret(%"class.std::__cxx11::basic_string") align 8 %5, ptr noundef nonnull align 8 dereferenceable(32) %1, i64 noundef %.02127, i64 noundef %24)
          to label %25 unwind label %.split30

25:                                               ; preds = %23
  %26 = load ptr, ptr %7, align 8
  %27 = load ptr, ptr %8, align 8
  %.not.i.i = icmp eq ptr %26, %27
  br i1 %.not.i.i, label %31, label %28

28:                                               ; preds = %25
  call void @_ZNSt7__cxx1112basic_stringIcSt11char_traitsIcESaIcEEC1EOS4_(ptr noundef nonnull align 8 dereferenceable(32) %26, ptr noundef nonnull align 8 dereferenceable(32) %5) #26
  %29 = load ptr, ptr %7, align 8
  %30 = getelementptr inbounds i8, ptr %29, i64 32
  store ptr %30, ptr %7, align 8
  br label %35

31:                                               ; preds = %25
  invoke void @_ZNSt6vectorINSt7__cxx1112basic_stringIcSt11char_traitsIcESaIcEEESaIS5_EE17_M_realloc_insertIJS5_EEEvN9__gnu_cxx17__normal_iteratorIPS5_S7_EEDpOT_(ptr noundef nonnull align 8 dereferenceable(24) %0, ptr %26, ptr noundef nonnull align 8 dereferenceable(32) %5)
          to label %35 unwind label %.split32

.split30:                                         ; preds = %23
  %32 = landingpad { ptr, i32 }
          cleanup
  br label %39

.split32:                                         ; preds = %31
  %33 = landingpad { ptr, i32 }
          cleanup
  br label %34

34:                                               ; preds = %.split32.us, %.split32
  %.us-phi33 = phi { ptr, i32 } [ %33, %.split32 ], [ %22, %.split32.us ]
  call void @_ZNSt7__cxx1112basic_stringIcSt11char_traitsIcESaIcEED1Ev(ptr noundef nonnull align 8 dereferenceable(32) %5) #26
  br label %39

35:                                               ; preds = %31, %28
  call void @_ZNSt7__cxx1112basic_stringIcSt11char_traitsIcESaIcEED1Ev(ptr noundef nonnull align 8 dereferenceable(32) %5) #26
  %.not25 = icmp eq i64 %.02028, -1
  br i1 %.not25, label %.split35.us, label %36

36:                                               ; preds = %35, %.split
  %37 = add nuw i64 %.02028, 1
  %38 = call noundef i64 @_ZNKSt7__cxx1112basic_stringIcSt11char_traitsIcESaIcEE13find_first_ofERKS4_m(ptr noundef nonnull align 8 dereferenceable(32) %1, ptr noundef nonnull align 8 dereferenceable(32) %2, i64 noundef %37) #26
  %.not = icmp eq i64 %37, -1
  br i1 %.not, label %.split35.us, label %.split, !llvm.loop !17

.split35.us:                                      ; preds = %35, %36, %17, %18
  ret void

39:                                               ; preds = %.split30, %.split30.us, %34
  %.pn = phi { ptr, i32 } [ %.us-phi33, %34 ], [ %32, %.split30 ], [ %21, %.split30.us ]
  call void @_ZNSt6vectorINSt7__cxx1112basic_stringIcSt11char_traitsIcESaIcEEESaIS5_EED2Ev(ptr noundef nonnull align 8 dereferenceable(24) %0) #26
  resume { ptr, i32 } %.pn
}